target datalayout = "e-m:e-p270:32:32-p271:32:32-p272:64:64-i64:64-i128:128-f80:128-n8:16:32:64-S128"
target triple = "x86_64-pc-linux-gnu"

%struct.qemu_plugin_u64 = type { ptr, i64 }

@rw = internal global i32 3, align 4
@source = internal global i8 0, align 1
@source_pc = internal global %struct.qemu_plugin_u64 zeroinitializer, align 8

; Function Attrs: nounwind sspstrong uwtable
define internal void @vcpu_tb_trans(i64 noundef %0, ptr noundef %1) #0 {
  %3 = alloca i64, align 8
  %4 = alloca ptr, align 8
  %5 = alloca i64, align 8
  %6 = alloca i64, align 8
  %7 = alloca ptr, align 8
  %8 = alloca i64, align 8
  store i64 %0, ptr %3, align 8
  store ptr %1, ptr %4, align 8
  call void @llvm.lifetime.start.p0(i64 8, ptr %5) #9
  %9 = load ptr, ptr %4, align 8
  %10 = call i64 @qemu_plugin_tb_n_insns(ptr noundef %9)
  store i64 %10, ptr %5, align 8
  call void @llvm.lifetime.start.p0(i64 8, ptr %6) #9
  store i64 0, ptr %6, align 8, !annotation !3
  store i64 0, ptr %6, align 8
  br label %11

11:                                               ; preds = %32, %2
  %12 = load i64, ptr %6, align 8
  %13 = load i64, ptr %5, align 8
  %14 = icmp ult i64 %12, %13
  br i1 %14, label %15, label %35

15:                                               ; preds = %11
  call void @llvm.lifetime.start.p0(i64 8, ptr %7) #9
  %16 = load ptr, ptr %4, align 8
  %17 = load i64, ptr %6, align 8
  %18 = call ptr @qemu_plugin_tb_get_insn(ptr noundef %16, i64 noundef %17)
  store ptr %18, ptr %7, align 8
  %19 = load i8, ptr @source, align 1, !range !6, !noundef !7
  %20 = trunc i8 %19 to i1
  br i1 %20, label %21, label %29

21:                                               ; preds = %15
  call void @llvm.lifetime.start.p0(i64 8, ptr %8) #9
  %22 = load ptr, ptr %7, align 8
  %23 = call i64 @qemu_plugin_insn_vaddr(ptr noundef %22)
  store i64 %23, ptr %8, align 8
  %24 = load ptr, ptr %7, align 8
  %25 = load i32, ptr @rw, align 4
  %26 = load i64, ptr %8, align 8
  %27 = load ptr, ptr @source_pc, align 8
  %28 = load i64, ptr getelementptr inbounds nuw ({ ptr, i64 }, ptr @source_pc, i32 0, i32 1), align 8
  call void @qemu_plugin_register_vcpu_mem_inline_per_vcpu(ptr noundef %24, i32 noundef %25, i32 noundef 1, ptr %27, i64 %28, i64 noundef %26)
  call void @llvm.lifetime.end.p0(i64 8, ptr %8) #9
  br label %29

29:                                               ; preds = %21, %15
  %30 = load ptr, ptr %7, align 8
  %31 = load i32, ptr @rw, align 4
  call void @qemu_plugin_register_vcpu_mem_cb(ptr noundef %30, ptr noundef @vcpu_haddr, i32 noundef 0, i32 noundef %31, ptr noundef null)
  call void @llvm.lifetime.end.p0(i64 8, ptr %7) #9
  br label %32

32:                                               ; preds = %29
  %33 = load i64, ptr %6, align 8
  %34 = add i64 %33, 1
  store i64 %34, ptr %6, align 8
  br label %11, !llvm.loop !8

35:                                               ; preds = %11
  call void @llvm.lifetime.end.p0(i64 8, ptr %6) #9
  call void @llvm.lifetime.end.p0(i64 8, ptr %5) #9
  ret void
}