; Function Attrs: nounwind sspstrong uwtable
define internal void @vcpu_tb_trans(i64 %0, ptr noundef %1) #0 {
  %3 = tail call i64 @qemu_plugin_tb_n_insns(ptr noundef %1) #7
  %.not = icmp eq i64 %3, 0
  br i1 %.not, label %._crit_edge, label %.lr.ph

.lr.ph:                                           ; preds = %2, %11
  %.09 = phi i64 [ %13, %11 ], [ 0, %2 ]
  %4 = tail call ptr @qemu_plugin_tb_get_insn(ptr noundef %1, i64 noundef %.09) #7
  %5 = load i8, ptr @source, align 1, !range !5, !noundef !6
  %6 = trunc nuw i8 %5 to i1
  br i1 %6, label %7, label %11

7:                                                ; preds = %.lr.ph
  %8 = tail call i64 @qemu_plugin_insn_vaddr(ptr noundef %4) #7
  %9 = load i32, ptr @rw, align 4
  %10 = load ptr, ptr @source_pc.0, align 8
  tail call void @qemu_plugin_register_vcpu_mem_inline_per_vcpu(ptr noundef %4, i32 noundef %9, i32 noundef 1, ptr %10, i64 0, i64 noundef %8) #7
  br label %11

11:                                               ; preds = %7, %.lr.ph
  %12 = load i32, ptr @rw, align 4
  tail call void @qemu_plugin_register_vcpu_mem_cb(ptr noundef %4, ptr noundef nonnull @vcpu_haddr, i32 noundef 0, i32 noundef %12, ptr noundef null) #7
  %13 = add nuw i64 %.09, 1
  %exitcond.not = icmp eq i64 %13, %3
  br i1 %exitcond.not, label %._crit_edge, label %.lr.ph, !llvm.loop !7

._crit_edge:                                      ; preds = %11, %2
  ret void
}